Certificate:
    Data:
        Version: 3 (0x2)
        Serial Number: 3 (0x3)
        Signature Algorithm: sha1WithRSAEncryption
        Issuer: DC=org, DC=simple, O=Simple Inc, OU=Simple Signing CA, CN=Simple Signing CA
        Validity
            Not Before: Jul 23 13:02:35 2019 GMT
            Not After : Jul 22 13:02:35 2021 GMT
        Subject: O=Toolness, OU=Experimental Software Authority, CN=example.org
        Subject Public Key Info:
            Public Key Algorithm: rsaEncryption
                RSA Public-Key: (2048 bit)
                Modulus:
                    00:9a:f3:2d:4b:61:95:e4:3d:e3:f2:ea:71:88:0e:
                    f3:8f:5a:f3:fb:c8:ea:dc:29:d5:b5:00:da:28:52:
                    1f:86:b2:53:05:ae:40:38:34:81:a4:64:56:a3:3e:
                    f7:05:17:50:02:ed:d0:ae:ec:55:74:a8:f9:4a:8b:
                    24:5f:b4:17:32:3d:b9:0b:9f:ce:51:fc:c0:e2:d2:
                    b8:b0:e9:00:6c:e8:f1:0c:a3:8f:ef:12:d6:bf:21:
                    47:6f:18:81:40:a3:f0:49:a4:3f:57:ca:45:db:56:
                    7d:bd:a8:24:4b:11:1a:1c:3c:02:ba:ff:eb:5f:f6:
                    19:58:3c:18:fa:2e:ab:f5:07:4d:eb:a4:9e:09:27:
                    c4:44:a2:27:e8:ed:cc:ee:e2:b1:45:4e:01:b2:f3:
                    0f:cb:bf:60:2b:a3:ee:ed:87:45:95:87:f5:d3:3d:
                    02:74:25:ca:af:66:fb:6a:f3:85:61:1b:17:c7:8b:
                    e7:d9:82:da:6a:4c:15:75:bc:d1:3c:47:04:53:b6:
                    da:c9:e0:7e:4a:a3:3b:ef:2a:f4:d8:1a:18:28:57:
                    71:55:27:9a:86:21:29:df:66:95:8a:08:de:d2:cd:
                    71:35:e6:7f:31:d6:72:5a:48:bf:08:56:9a:c7:5e:
                    80:58:d5:39:a6:fc:0a:3a:f5:a1:35:ff:a8:c3:58:
                    0a:d3
                Exponent: 65537 (0x10001)
        X509v3 extensions:
            X509v3 Key Usage: critical
                Digital Signature, Key Encipherment
            X509v3 Basic Constraints: 
                CA:FALSE
            X509v3 Extended Key Usage: 
                TLS Web Server Authentication, TLS Web Client Authentication
            X509v3 Subject Key Identifier: 
                34:4D:EB:8A:94:76:69:60:4D:24:9F:4D:7A:66:3F:B2:B0:F0:1F:E9
            X509v3 Authority Key Identifier: 
                keyid:6A:14:EB:6C:9E:80:46:8F:DA:3A:AF:D4:B5:EB:BE:FE:18:55:BE:B9

            X509v3 Subject Alternative Name: 
                DNS:example.org, DNS:*.example.org
    Signature Algorithm: sha1WithRSAEncryption
         03:72:1c:04:a5:80:3f:37:70:6a:fb:b2:c0:01:5a:a9:b7:3b:
         87:bb:d8:e1:71:76:f1:1e:c0:52:c4:75:d4:8d:27:ba:37:fd:
         35:88:5a:67:cf:c7:6d:26:8c:0b:77:13:b4:20:54:45:b1:e1:
         3c:92:8b:d4:3c:1e:02:e9:e8:a5:6b:b7:73:5b:13:f1:7c:52:
         4f:02:c7:ed:13:51:75:5f:07:b6:95:49:de:68:60:27:1e:fe:
         44:3a:75:ce:d4:53:31:86:15:45:3a:68:86:b9:82:24:78:b5:
         8b:9c:4f:f2:37:9f:2d:8d:f4:eb:81:e1:50:ed:53:29:dd:70:
         2f:2b:be:1e:18:62:88:70:4f:f7:81:f3:25:76:59:1d:30:8b:
         f1:9e:d5:91:f7:03:bb:84:ec:51:61:e8:df:d2:35:39:47:1a:
         09:0d:10:db:66:7d:47:7e:fb:20:6f:93:f1:25:37:5d:aa:e3:
         79:4a:44:f2:92:9b:7e:88:ff:57:03:39:80:80:c8:17:f4:84:
         2b:2e:98:e0:c4:4b:1b:cf:43:36:fa:1f:0a:dc:cd:58:61:c1:
         7d:1c:fc:e5:ed:ed:dc:26:1f:31:b9:27:ac:44:fe:a9:af:30:
         95:91:25:22:2c:78:72:4d:79:fc:67:43:32:ad:47:76:23:2e:
         ee:ea:ea:44
-----BEGIN CERTIFICATE-----
MIID7TCCAtWgAwIBAgIBAzANBgkqhkiG9w0BAQUFADB6MRMwEQYKCZImiZPyLGQB
GRYDb3JnMRYwFAYKCZImiZPyLGQBGRYGc2ltcGxlMRMwEQYDVQQKDApTaW1wbGUg
SW5jMRowGAYDVQQLDBFTaW1wbGUgU2lnbmluZyBDQTEaMBgGA1UEAwwRU2ltcGxl
IFNpZ25pbmcgQ0EwHhcNMTkwNzIzMTMwMjM1WhcNMjEwNzIyMTMwMjM1WjBTMREw
DwYDVQQKDAhUb29sbmVzczEoMCYGA1UECwwfRXhwZXJpbWVudGFsIFNvZnR3YXJl
IEF1dGhvcml0eTEUMBIGA1UEAwwLZXhhbXBsZS5vcmcwggEiMA0GCSqGSIb3DQEB
AQUAA4IBDwAwggEKAoIBAQCa8y1LYZXkPePy6nGIDvOPWvP7yOrcKdW1ANooUh+G
slMFrkA4NIGkZFajPvcFF1AC7dCu7FV0qPlKiyRftBcyPbkLn85R/MDi0riw6QBs
6PEMo4/vEta/IUdvGIFAo/BJpD9XykXbVn29qCRLERocPAK6/+tf9hlYPBj6Lqv1
B03rpJ4JJ8REoifo7czu4rFFTgGy8w/Lv2Aro+7th0WVh/XTPQJ0JcqvZvtq84Vh
GxfHi+fZgtpqTBV1vNE8RwRTttrJ4H5KozvvKvTYGhgoV3FVJ5qGISnfZpWKCN7S
zXE15n8x1nJaSL8IVprHXoBY1Tmm/Ao69aE1/6jDWArTAgMBAAGjgaQwgaEwDgYD
VR0PAQH/BAQDAgWgMAkGA1UdEwQCMAAwHQYDVR0lBBYwFAYIKwYBBQUHAwEGCCsG
AQUFBwMCMB0GA1UdDgQWBBQ0TeuKlHZpYE0kn016Zj+ysPAf6TAfBgNVHSMEGDAW
gBRqFOtsnoBGj9o6r9S1677+GFW+uTAlBgNVHREEHjAcggtleGFtcGxlLm9yZ4IN
Ki5leGFtcGxlLm9yZzANBgkqhkiG9w0BAQUFAAOCAQEAA3IcBKWAPzdwavuywAFa
qbc7h7vY4XF28R7AUsR11I0nujf9NYhaZ8/HbSaMC3cTtCBURbHhPJKL1DweAuno
pWu3c1sT8XxSTwLH7RNRdV8HtpVJ3mhgJx7+RDp1ztRTMYYVRTpohrmCJHi1i5xP
8jefLY3064HhUO1TKd1wLyu+HhhiiHBP94HzJXZZHTCL8Z7VkfcDu4TsUWHo39I1
OUcaCQ0Q22Z9R377IG+T8SU3XarjeUpE8pKbfoj/VwM5gIDIF/SEKy6Y4MRLG89D
NvofCtzNWGHBfRz85e3t3CYfMbknrET+qa8wlZElIix4ck15/GdDMq1HdiMu7urq
RA==
-----END CERTIFICATE-----
