Certificate:
    Data:
        Version: 3 (0x2)
        Serial Number: 4 (0x4)
        Signature Algorithm: sha1WithRSAEncryption
        Issuer: DC=org, DC=simple, O=Simple Inc, OU=Simple Signing CA, CN=Simple Signing CA
        Validity
            Not Before: Jul 23 13:07:53 2019 GMT
            Not After : Jul 22 13:07:53 2021 GMT
        Subject: O=Toolness, OU=Experimental Software Authority, CN=example.com
        Subject Public Key Info:
            Public Key Algorithm: rsaEncryption
                RSA Public-Key: (2048 bit)
                Modulus:
                    00:d0:be:cd:3f:bb:c3:8e:59:6e:d4:b4:fb:6e:6c:
                    29:45:5e:f4:7b:96:ee:9f:83:64:e3:3e:58:fe:88:
                    05:e8:a1:70:89:38:77:a5:73:aa:f6:84:40:1e:7c:
                    1f:af:54:8c:d4:fb:12:bd:af:15:28:0e:c6:09:e6:
                    50:fc:43:5b:e6:24:b3:1d:f6:97:02:1b:de:6f:38:
                    aa:55:d4:ba:b2:f0:be:c9:37:50:d0:f6:ca:02:62:
                    ba:32:95:aa:bd:27:42:31:2d:d3:2d:ea:1e:04:a7:
                    be:03:da:58:4b:53:84:db:9e:e5:23:87:ef:10:0e:
                    14:24:fe:41:cc:e4:e7:f6:1f:9f:55:80:d6:ba:33:
                    39:be:74:26:53:f7:6f:25:16:83:2c:0f:54:bc:d4:
                    e4:bb:a5:24:c8:72:4c:bf:18:20:25:b3:ba:1a:31:
                    ec:38:ba:cc:14:c5:24:c9:1b:f9:e6:cd:24:ee:43:
                    13:d9:08:61:a0:bb:4f:4c:99:90:56:1f:21:79:a2:
                    d9:0f:11:0b:61:c5:1f:c4:80:48:a0:d9:a5:ce:5b:
                    0c:2d:19:7a:5e:58:55:26:dc:c9:9e:46:8f:a2:2e:
                    32:57:d6:bf:52:d6:43:84:8f:9b:3f:6c:c3:3f:fb:
                    ef:29:e9:c7:58:b9:8b:71:40:a7:4f:a8:81:e2:8a:
                    4f:e9
                Exponent: 65537 (0x10001)
        X509v3 extensions:
            X509v3 Key Usage: critical
                Digital Signature, Key Encipherment
            X509v3 Basic Constraints: 
                CA:FALSE
            X509v3 Extended Key Usage: 
                TLS Web Server Authentication, TLS Web Client Authentication
            X509v3 Subject Key Identifier: 
                9E:61:33:CD:4D:29:B5:86:A5:98:A8:E6:34:44:13:F2:89:B7:A9:99
            X509v3 Authority Key Identifier: 
                keyid:6A:14:EB:6C:9E:80:46:8F:DA:3A:AF:D4:B5:EB:BE:FE:18:55:BE:B9

            X509v3 Subject Alternative Name: 
                DNS:example.com, DNS:*.example.com
    Signature Algorithm: sha1WithRSAEncryption
         42:21:ec:23:95:7e:0d:f8:c2:db:27:b2:5e:93:43:f8:d7:25:
         0f:6c:33:a5:1c:6e:4d:e5:1a:a0:57:6b:5e:a6:e6:ea:ec:ac:
         ef:6e:76:64:17:4a:a1:2a:49:67:36:ed:91:d5:14:0d:5f:95:
         75:d5:bb:d9:62:0f:0e:55:fc:ea:f0:ee:92:5a:fb:5c:eb:8d:
         c3:0b:db:e8:6e:9c:7a:40:56:ba:8f:cd:dd:58:52:9f:f2:47:
         d9:7d:23:b9:b7:c5:fd:c5:49:a0:5c:58:54:04:68:be:ea:53:
         06:d0:07:a2:da:95:e3:fd:d1:34:3b:79:80:ed:d1:26:f9:20:
         2a:4a:32:7f:0e:ec:e5:e1:43:03:17:e7:20:49:33:8e:5e:53:
         05:f1:00:43:2f:8d:92:7f:a2:25:9a:12:ba:5b:da:39:73:96:
         3a:8f:d3:06:79:9c:b3:87:f4:d0:e5:6b:31:98:53:ca:39:af:
         6c:25:b2:60:73:a7:1d:9d:0b:f8:ff:ec:4c:96:63:4a:d8:df:
         9c:73:db:9c:72:a4:93:cc:0b:f8:bb:04:93:49:85:76:f1:4e:
         0f:17:6e:71:2b:da:42:d6:ea:f9:e8:cd:32:02:90:f0:5f:7f:
         8c:38:35:74:95:2a:ba:b6:18:cd:12:e8:5f:22:db:e7:d5:f6:
         c8:96:b0:35
-----BEGIN CERTIFICATE-----
MIID7TCCAtWgAwIBAgIBBDANBgkqhkiG9w0BAQUFADB6MRMwEQYKCZImiZPyLGQB
GRYDb3JnMRYwFAYKCZImiZPyLGQBGRYGc2ltcGxlMRMwEQYDVQQKDApTaW1wbGUg
SW5jMRowGAYDVQQLDBFTaW1wbGUgU2lnbmluZyBDQTEaMBgGA1UEAwwRU2ltcGxl
IFNpZ25pbmcgQ0EwHhcNMTkwNzIzMTMwNzUzWhcNMjEwNzIyMTMwNzUzWjBTMREw
DwYDVQQKDAhUb29sbmVzczEoMCYGA1UECwwfRXhwZXJpbWVudGFsIFNvZnR3YXJl
IEF1dGhvcml0eTEUMBIGA1UEAwwLZXhhbXBsZS5jb20wggEiMA0GCSqGSIb3DQEB
AQUAA4IBDwAwggEKAoIBAQDQvs0/u8OOWW7UtPtubClFXvR7lu6fg2TjPlj+iAXo
oXCJOHelc6r2hEAefB+vVIzU+xK9rxUoDsYJ5lD8Q1vmJLMd9pcCG95vOKpV1Lqy
8L7JN1DQ9soCYroylaq9J0IxLdMt6h4Ep74D2lhLU4TbnuUjh+8QDhQk/kHM5Of2
H59VgNa6Mzm+dCZT928lFoMsD1S81OS7pSTIcky/GCAls7oaMew4uswUxSTJG/nm
zSTuQxPZCGGgu09MmZBWHyF5otkPEQthxR/EgEig2aXOWwwtGXpeWFUm3MmeRo+i
LjJX1r9S1kOEj5s/bMM/++8p6cdYuYtxQKdPqIHiik/pAgMBAAGjgaQwgaEwDgYD
VR0PAQH/BAQDAgWgMAkGA1UdEwQCMAAwHQYDVR0lBBYwFAYIKwYBBQUHAwEGCCsG
AQUFBwMCMB0GA1UdDgQWBBSeYTPNTSm1hqWYqOY0RBPyibepmTAfBgNVHSMEGDAW
gBRqFOtsnoBGj9o6r9S1677+GFW+uTAlBgNVHREEHjAcggtleGFtcGxlLmNvbYIN
Ki5leGFtcGxlLmNvbTANBgkqhkiG9w0BAQUFAAOCAQEAQiHsI5V+DfjC2yeyXpND
+NclD2wzpRxuTeUaoFdrXqbm6uys7252ZBdKoSpJZzbtkdUUDV+VddW72WIPDlX8
6vDuklr7XOuNwwvb6G6cekBWuo/N3VhSn/JH2X0jubfF/cVJoFxYVARovupTBtAH
otqV4/3RNDt5gO3RJvkgKkoyfw7s5eFDAxfnIEkzjl5TBfEAQy+Nkn+iJZoSulva
OXOWOo/TBnmcs4f00OVrMZhTyjmvbCWyYHOnHZ0L+P/sTJZjStjfnHPbnHKkk8wL
+LsEk0mFdvFODxducSvaQtbq+ejNMgKQ8F9/jDg1dJUqurYYzRLoXyLb59X2yJaw
NQ==
-----END CERTIFICATE-----
