Certificate:
    Data:
        Version: 3 (0x2)
        Serial Number: 5 (0x5)
        Signature Algorithm: sha1WithRSAEncryption
        Issuer: DC=org, DC=simple, O=Simple Inc, OU=Simple Signing CA, CN=Simple Signing CA
        Validity
            Not Before: Jul 23 13:09:08 2019 GMT
            Not After : Jul 22 13:09:08 2021 GMT
        Subject: O=Toolness, OU=Experimental Software Authority, CN=example2.com
        Subject Public Key Info:
            Public Key Algorithm: rsaEncryption
                RSA Public-Key: (2048 bit)
                Modulus:
                    00:b7:8e:7f:1f:ac:91:de:07:94:09:51:c9:ac:98:
                    7b:07:2e:23:f0:ba:2d:82:53:5d:19:77:02:85:8e:
                    8b:82:cd:fc:00:6b:40:b3:d9:39:60:92:30:32:cc:
                    67:b6:36:6a:ee:1e:4f:70:1d:3d:c8:be:38:da:f2:
                    5f:b4:5a:d2:42:6b:2b:1b:9a:0d:43:72:0d:d4:43:
                    6c:af:17:80:c4:54:0e:39:c5:b4:f2:f3:5f:02:82:
                    96:24:33:ee:6b:94:90:2d:7e:e6:39:96:c7:38:5e:
                    e4:17:33:fe:25:2e:e0:c4:95:a5:3b:66:d4:d2:43:
                    92:7e:e3:10:70:8a:a2:93:b6:2f:92:25:86:a4:25:
                    35:e0:68:a4:ac:08:ee:b1:c9:75:88:16:72:43:dc:
                    74:64:21:dc:1b:b0:3a:8e:d1:77:d1:c3:b1:02:02:
                    46:3b:fa:89:ae:c4:f4:40:d3:31:6d:d0:50:02:0d:
                    18:37:44:38:23:0a:26:0c:86:e6:69:5e:b0:db:f2:
                    08:7c:16:fa:19:a3:b1:0a:ec:a1:d4:99:2e:51:e7:
                    01:e0:6a:f7:19:56:3e:87:5a:0a:44:91:6a:33:8c:
                    df:a6:3f:4e:25:8d:18:e1:c4:e9:9b:a8:d0:6b:32:
                    62:6a:e7:a5:6b:2d:f1:62:f2:2d:33:92:ed:54:c8:
                    08:73
                Exponent: 65537 (0x10001)
        X509v3 extensions:
            X509v3 Key Usage: critical
                Digital Signature, Key Encipherment
            X509v3 Basic Constraints: 
                CA:FALSE
            X509v3 Extended Key Usage: 
                TLS Web Server Authentication, TLS Web Client Authentication
            X509v3 Subject Key Identifier: 
                AD:B4:01:EF:89:DF:9D:C0:DA:12:14:D1:0A:C5:10:C6:04:26:2A:1C
            X509v3 Authority Key Identifier: 
                keyid:6A:14:EB:6C:9E:80:46:8F:DA:3A:AF:D4:B5:EB:BE:FE:18:55:BE:B9

            X509v3 Subject Alternative Name: 
                DNS:example2.com, DNS:*.example2.com
    Signature Algorithm: sha1WithRSAEncryption
         cc:41:0e:ab:df:f0:e4:2b:2f:3e:72:0a:32:cc:d4:a7:06:5f:
         db:f9:1e:e0:91:a1:81:09:db:4a:ba:67:29:a5:1d:e8:0c:c7:
         5e:79:41:3b:e3:90:51:80:41:2d:dd:13:e2:a5:7d:84:9d:9c:
         0a:d0:fc:b7:ad:6b:80:9e:27:e9:2e:72:1b:1a:a8:0c:95:aa:
         e5:1e:a7:47:d2:82:4c:8b:ee:e4:fe:e9:36:8e:57:e2:0d:a9:
         eb:75:0d:5f:10:3f:4e:e0:36:86:d5:6b:4c:6c:1e:ad:e6:be:
         d2:bc:83:3e:1a:0c:b5:29:06:d8:3a:91:61:4b:df:66:61:08:
         db:30:71:15:f6:9e:65:21:9f:2a:c7:04:5e:da:b6:ef:c8:6e:
         7f:61:70:46:b2:85:08:2a:d8:22:ab:60:d5:1b:68:20:af:1c:
         08:c9:40:1c:8c:27:69:31:63:db:05:71:b4:0b:eb:97:fb:01:
         ed:fd:8e:6c:03:8c:13:06:0b:8a:d9:60:0e:8e:95:11:ff:cb:
         92:13:a9:7b:04:f0:1c:8c:ff:b8:77:42:cc:6c:89:d9:bc:28:
         b0:20:64:56:2a:23:d8:00:e9:87:d6:47:bc:63:69:63:24:fe:
         dc:13:96:dc:77:9d:5b:fd:54:bf:90:b0:2a:0d:99:37:8f:cc:
         2f:ac:e4:50
-----BEGIN CERTIFICATE-----
MIID8DCCAtigAwIBAgIBBTANBgkqhkiG9w0BAQUFADB6MRMwEQYKCZImiZPyLGQB
GRYDb3JnMRYwFAYKCZImiZPyLGQBGRYGc2ltcGxlMRMwEQYDVQQKDApTaW1wbGUg
SW5jMRowGAYDVQQLDBFTaW1wbGUgU2lnbmluZyBDQTEaMBgGA1UEAwwRU2ltcGxl
IFNpZ25pbmcgQ0EwHhcNMTkwNzIzMTMwOTA4WhcNMjEwNzIyMTMwOTA4WjBUMREw
DwYDVQQKDAhUb29sbmVzczEoMCYGA1UECwwfRXhwZXJpbWVudGFsIFNvZnR3YXJl
IEF1dGhvcml0eTEVMBMGA1UEAwwMZXhhbXBsZTIuY29tMIIBIjANBgkqhkiG9w0B
AQEFAAOCAQ8AMIIBCgKCAQEAt45/H6yR3geUCVHJrJh7By4j8LotglNdGXcChY6L
gs38AGtAs9k5YJIwMsxntjZq7h5PcB09yL442vJftFrSQmsrG5oNQ3IN1ENsrxeA
xFQOOcW08vNfAoKWJDPua5SQLX7mOZbHOF7kFzP+JS7gxJWlO2bU0kOSfuMQcIqi
k7YvkiWGpCU14GikrAjuscl1iBZyQ9x0ZCHcG7A6jtF30cOxAgJGO/qJrsT0QNMx
bdBQAg0YN0Q4IwomDIbmaV6w2/IIfBb6GaOxCuyh1JkuUecB4Gr3GVY+h1oKRJFq
M4zfpj9OJY0Y4cTpm6jQazJiauelay3xYvItM5LtVMgIcwIDAQABo4GmMIGjMA4G
A1UdDwEB/wQEAwIFoDAJBgNVHRMEAjAAMB0GA1UdJQQWMBQGCCsGAQUFBwMBBggr
BgEFBQcDAjAdBgNVHQ4EFgQUrbQB74nfncDaEhTRCsUQxgQmKhwwHwYDVR0jBBgw
FoAUahTrbJ6ARo/aOq/Uteu+/hhVvrkwJwYDVR0RBCAwHoIMZXhhbXBsZTIuY29t
gg4qLmV4YW1wbGUyLmNvbTANBgkqhkiG9w0BAQUFAAOCAQEAzEEOq9/w5CsvPnIK
MszUpwZf2/ke4JGhgQnbSrpnKaUd6AzHXnlBO+OQUYBBLd0T4qV9hJ2cCtD8t61r
gJ4n6S5yGxqoDJWq5R6nR9KCTIvu5P7pNo5X4g2p63UNXxA/TuA2htVrTGwerea+
0ryDPhoMtSkG2DqRYUvfZmEI2zBxFfaeZSGfKscEXtq278huf2FwRrKFCCrYIqtg
1RtoIK8cCMlAHIwnaTFj2wVxtAvrl/sB7f2ObAOMEwYLitlgDo6VEf/LkhOpewTw
HIz/uHdCzGyJ2bwosCBkVioj2ADph9ZHvGNpYyT+3BOW3HedW/1Uv5CwKg2ZN4/M
L6zkUA==
-----END CERTIFICATE-----
