Certificate:
    Data:
        Version: 3 (0x2)
        Serial Number: 6 (0x6)
        Signature Algorithm: sha1WithRSAEncryption
        Issuer: DC=org, DC=simple, O=Simple Inc, OU=Simple Signing CA, CN=Simple Signing CA
        Validity
            Not Before: Jul 23 13:29:40 2019 GMT
            Not After : Jul 22 13:29:40 2021 GMT
        Subject: O=Example, OU=Examplel Software Authority, CN=abc.com
        Subject Public Key Info:
            Public Key Algorithm: rsaEncryption
                RSA Public-Key: (2048 bit)
                Modulus:
                    00:ca:b3:c8:d7:b8:dd:9f:b7:a5:0f:1e:a4:ac:26:
                    dc:93:ba:d7:48:d4:d7:87:58:30:07:00:a4:c2:bf:
                    0a:9a:56:a5:1f:3b:23:6c:bb:be:1f:a8:b5:09:0e:
                    79:18:ac:76:15:86:48:f6:da:05:8c:55:76:4e:22:
                    00:af:16:e4:11:d9:ab:84:65:31:1a:83:a4:00:33:
                    3e:32:a7:21:90:48:41:d2:5a:95:6b:a0:e2:57:3b:
                    4f:1f:a2:22:68:a9:65:65:81:d3:fe:db:1f:13:d7:
                    ad:aa:a8:60:b7:82:7c:aa:56:50:98:b9:2c:23:57:
                    ff:ff:07:a9:f6:87:4e:6b:8c:3a:ef:ba:ea:21:a9:
                    1a:a1:4c:0f:8b:b7:26:21:00:81:7d:a8:12:55:0b:
                    93:ae:41:4e:94:0e:29:ba:80:58:ee:16:51:84:22:
                    4c:c9:cf:21:e9:3f:e6:8b:53:6d:0e:2c:33:f5:2f:
                    ce:3a:ac:fa:4b:7f:32:be:4a:14:24:a1:21:b9:3b:
                    c2:67:c5:2f:f0:10:f5:8b:f0:c2:4b:27:a7:ae:d0:
                    3e:df:9d:c5:4b:f4:17:55:7d:d5:43:02:04:52:dd:
                    47:d3:d2:37:fe:fd:63:1e:a3:a9:20:21:e4:60:21:
                    d3:54:f5:cc:1a:b4:82:c2:a0:0d:6e:33:40:c8:9a:
                    74:45
                Exponent: 65537 (0x10001)
        X509v3 extensions:
            X509v3 Key Usage: critical
                Digital Signature, Key Encipherment
            X509v3 Basic Constraints: 
                CA:FALSE
            X509v3 Extended Key Usage: 
                TLS Web Server Authentication, TLS Web Client Authentication
            X509v3 Subject Key Identifier: 
                77:80:8C:89:28:4C:FF:02:A4:FB:E4:76:66:C9:FD:C7:DB:6B:CA:10
            X509v3 Authority Key Identifier: 
                keyid:6A:14:EB:6C:9E:80:46:8F:DA:3A:AF:D4:B5:EB:BE:FE:18:55:BE:B9

            X509v3 Subject Alternative Name: 
                DNS:abc.com, DNS:*.abc.com
    Signature Algorithm: sha1WithRSAEncryption
         7d:59:f7:22:05:75:89:a2:02:99:cb:17:d5:e5:77:50:c7:10:
         43:7a:f7:c5:ef:da:fe:9d:ac:44:9e:49:e4:e6:d4:84:af:bf:
         c7:a1:90:a9:93:35:41:a9:6e:78:08:12:8e:eb:aa:55:77:5b:
         db:1c:fa:65:83:3a:fd:25:09:5f:f1:34:ce:9b:97:37:26:9c:
         b4:b4:4e:d4:94:6a:a4:3e:e0:d7:75:e3:66:8c:b3:cc:fb:78:
         71:4c:3b:4d:c7:fa:5a:4e:7e:45:43:fa:39:a7:00:1d:7b:4f:
         24:10:02:87:c2:86:72:83:86:68:ed:e0:72:7e:61:5f:42:fb:
         ac:86:5c:30:19:71:a1:bb:bc:41:2a:ac:32:d1:21:6d:10:cb:
         bd:a4:d5:f4:67:c3:8a:35:c8:0d:a8:49:96:92:72:bc:b9:af:
         06:e8:e6:8a:bd:c9:38:68:8c:b9:90:95:db:ff:de:18:07:04:
         e6:47:e5:00:0c:2b:99:a4:66:64:8c:85:69:af:a5:f3:1f:37:
         e0:76:85:0d:b9:7f:b9:5f:05:12:66:45:92:d6:c6:34:72:63:
         a9:a2:a4:df:3e:47:16:4a:77:d5:3f:cd:e2:97:eb:1b:49:5f:
         75:c8:41:cb:5d:97:a2:9b:82:76:33:71:f1:de:62:3b:39:9c:
         66:17:06:1b
-----BEGIN CERTIFICATE-----
MIID3DCCAsSgAwIBAgIBBjANBgkqhkiG9w0BAQUFADB6MRMwEQYKCZImiZPyLGQB
GRYDb3JnMRYwFAYKCZImiZPyLGQBGRYGc2ltcGxlMRMwEQYDVQQKDApTaW1wbGUg
SW5jMRowGAYDVQQLDBFTaW1wbGUgU2lnbmluZyBDQTEaMBgGA1UEAwwRU2ltcGxl
IFNpZ25pbmcgQ0EwHhcNMTkwNzIzMTMyOTQwWhcNMjEwNzIyMTMyOTQwWjBKMRAw
DgYDVQQKDAdFeGFtcGxlMSQwIgYDVQQLDBtFeGFtcGxlbCBTb2Z0d2FyZSBBdXRo
b3JpdHkxEDAOBgNVBAMMB2FiYy5jb20wggEiMA0GCSqGSIb3DQEBAQUAA4IBDwAw
ggEKAoIBAQDKs8jXuN2ft6UPHqSsJtyTutdI1NeHWDAHAKTCvwqaVqUfOyNsu74f
qLUJDnkYrHYVhkj22gWMVXZOIgCvFuQR2auEZTEag6QAMz4ypyGQSEHSWpVroOJX
O08foiJoqWVlgdP+2x8T162qqGC3gnyqVlCYuSwjV///B6n2h05rjDrvuuohqRqh
TA+LtyYhAIF9qBJVC5OuQU6UDim6gFjuFlGEIkzJzyHpP+aLU20OLDP1L846rPpL
fzK+ShQkoSG5O8JnxS/wEPWL8MJLJ6eu0D7fncVL9BdVfdVDAgRS3UfT0jf+/WMe
o6kgIeRgIdNU9cwatILCoA1uM0DImnRFAgMBAAGjgZwwgZkwDgYDVR0PAQH/BAQD
AgWgMAkGA1UdEwQCMAAwHQYDVR0lBBYwFAYIKwYBBQUHAwEGCCsGAQUFBwMCMB0G
A1UdDgQWBBR3gIyJKEz/AqT75HZmyf3H22vKEDAfBgNVHSMEGDAWgBRqFOtsnoBG
j9o6r9S1677+GFW+uTAdBgNVHREEFjAUggdhYmMuY29tggkqLmFiYy5jb20wDQYJ
KoZIhvcNAQEFBQADggEBAH1Z9yIFdYmiApnLF9Xld1DHEEN698Xv2v6drESeSeTm
1ISvv8ehkKmTNUGpbngIEo7rqlV3W9sc+mWDOv0lCV/xNM6blzcmnLS0TtSUaqQ+
4Nd142aMs8z7eHFMO03H+lpOfkVD+jmnAB17TyQQAofChnKDhmjt4HJ+YV9C+6yG
XDAZcaG7vEEqrDLRIW0Qy72k1fRnw4o1yA2oSZaScry5rwbo5oq9yThojLmQldv/
3hgHBOZH5QAMK5mkZmSMhWmvpfMfN+B2hQ25f7lfBRJmRZLWxjRyY6mipN8+RxZK
d9U/zeKX6xtJX3XIQctdl6KbgnYzcfHeYjs5nGYXBhs=
-----END CERTIFICATE-----
