Certificate:
    Data:
        Version: 3 (0x2)
        Serial Number: 7 (0x7)
        Signature Algorithm: sha1WithRSAEncryption
        Issuer: DC=org, DC=simple, O=Simple Inc, OU=Simple Signing CA, CN=Simple Signing CA
        Validity
            Not Before: Jul 24 08:30:38 2019 GMT
            Not After : Jul 23 08:30:38 2021 GMT
        Subject: O=Example, OU=Examplel Software Authority, CN=abc.xyz
        Subject Public Key Info:
            Public Key Algorithm: rsaEncryption
                RSA Public-Key: (2048 bit)
                Modulus:
                    00:db:52:25:ac:62:51:f4:5b:e7:be:1b:e2:d7:3f:
                    e9:14:c2:ea:6b:f4:49:d4:4f:39:8d:4a:ae:52:a4:
                    f9:e2:9a:c6:34:b2:fe:87:97:d4:2a:6e:7b:02:eb:
                    d9:18:f8:d4:be:ff:f4:dd:82:5d:62:9c:d3:4d:9a:
                    0c:05:47:f5:96:33:be:60:1a:c0:1c:e1:6c:de:e1:
                    4f:4f:06:fe:4a:63:d3:5b:46:23:fa:85:a4:56:a4:
                    50:70:66:37:39:ad:d5:14:dc:e9:ed:ff:8e:6f:6c:
                    01:60:88:9f:04:fb:46:74:13:dc:0c:5f:5f:d3:58:
                    ef:3d:21:e5:4a:41:26:a2:1e:4a:9b:b8:c8:04:4d:
                    88:88:a5:33:cc:58:84:82:47:bd:c3:5b:b4:aa:5a:
                    b7:e9:cf:69:8e:37:76:ed:b1:97:d6:cb:25:63:91:
                    b1:d1:a3:d6:3b:d0:2e:71:e8:4a:6d:32:30:bf:e4:
                    02:72:08:c4:e1:1f:6e:46:be:15:b5:43:b4:38:a7:
                    ee:23:e9:18:e9:3e:88:1e:1e:ee:8f:67:d0:40:4e:
                    6a:ca:d8:57:2f:d4:19:76:e0:4a:2a:4d:55:aa:40:
                    3e:40:69:98:93:80:f0:c5:83:0d:2b:6d:6d:8f:ac:
                    d2:02:56:2c:2a:c3:9d:08:b0:bc:35:66:05:fa:7f:
                    54:a3
                Exponent: 65537 (0x10001)
        X509v3 extensions:
            X509v3 Key Usage: critical
                Digital Signature, Key Encipherment
            X509v3 Basic Constraints: 
                CA:FALSE
            X509v3 Extended Key Usage: 
                TLS Web Server Authentication, TLS Web Client Authentication
            X509v3 Subject Key Identifier: 
                19:26:41:8B:68:29:34:F2:52:EF:30:8F:44:7A:4A:E1:CB:69:C9:69
            X509v3 Authority Key Identifier: 
                keyid:6A:14:EB:6C:9E:80:46:8F:DA:3A:AF:D4:B5:EB:BE:FE:18:55:BE:B9

            X509v3 Subject Alternative Name: 
                DNS:abc.xyz, DNS:*.abc.xyz
    Signature Algorithm: sha1WithRSAEncryption
         7f:e5:44:b5:f4:c7:8a:17:23:4c:6e:07:61:aa:15:e9:3c:a1:
         67:a0:00:1f:b2:14:e8:c7:68:c7:4d:53:5e:87:1c:b7:e4:76:
         29:5c:8f:7d:aa:32:81:28:f0:69:6f:ea:e7:5e:1b:8f:58:e4:
         1b:48:de:92:f4:7a:23:ee:3c:32:3f:99:a5:c8:4e:1b:cb:6c:
         e3:70:e5:29:fa:ce:9a:be:69:6c:ab:c5:62:02:17:b9:fe:48:
         80:58:6c:5a:ea:79:9b:87:60:15:1a:09:17:d8:59:1b:cd:ae:
         85:6c:89:07:bb:aa:4f:88:fa:19:44:f8:f6:d4:32:6b:51:40:
         5d:81:1d:fc:97:6f:e3:c1:50:7f:1d:e6:55:5e:0d:14:fd:0f:
         0c:3a:4b:8d:78:b7:9a:49:6d:7c:37:c2:d3:75:03:e3:d6:44:
         f3:31:ab:1d:f4:cd:a5:e9:0a:27:e3:4f:bb:b4:62:a4:86:62:
         6f:c0:c1:8a:5c:f4:e4:c8:b2:a4:3a:25:2e:89:80:a6:31:a8:
         8a:f2:cb:dd:d6:c7:7d:60:95:a3:0f:61:ff:52:4f:29:fa:b9:
         de:d4:65:e3:12:2e:d8:fe:81:26:d2:46:2e:25:3a:1d:82:4e:
         19:68:c3:4a:85:46:72:77:52:23:87:84:7b:d6:61:09:e9:10:
         33:f6:af:a6
-----BEGIN CERTIFICATE-----
MIID3DCCAsSgAwIBAgIBBzANBgkqhkiG9w0BAQUFADB6MRMwEQYKCZImiZPyLGQB
GRYDb3JnMRYwFAYKCZImiZPyLGQBGRYGc2ltcGxlMRMwEQYDVQQKDApTaW1wbGUg
SW5jMRowGAYDVQQLDBFTaW1wbGUgU2lnbmluZyBDQTEaMBgGA1UEAwwRU2ltcGxl
IFNpZ25pbmcgQ0EwHhcNMTkwNzI0MDgzMDM4WhcNMjEwNzIzMDgzMDM4WjBKMRAw
DgYDVQQKDAdFeGFtcGxlMSQwIgYDVQQLDBtFeGFtcGxlbCBTb2Z0d2FyZSBBdXRo
b3JpdHkxEDAOBgNVBAMMB2FiYy54eXowggEiMA0GCSqGSIb3DQEBAQUAA4IBDwAw
ggEKAoIBAQDbUiWsYlH0W+e+G+LXP+kUwupr9EnUTzmNSq5SpPnimsY0sv6Hl9Qq
bnsC69kY+NS+//Tdgl1inNNNmgwFR/WWM75gGsAc4Wze4U9PBv5KY9NbRiP6haRW
pFBwZjc5rdUU3Ont/45vbAFgiJ8E+0Z0E9wMX1/TWO89IeVKQSaiHkqbuMgETYiI
pTPMWISCR73DW7SqWrfpz2mON3btsZfWyyVjkbHRo9Y70C5x6EptMjC/5AJyCMTh
H25GvhW1Q7Q4p+4j6RjpPogeHu6PZ9BATmrK2Fcv1Bl24EoqTVWqQD5AaZiTgPDF
gw0rbW2PrNICViwqw50IsLw1ZgX6f1SjAgMBAAGjgZwwgZkwDgYDVR0PAQH/BAQD
AgWgMAkGA1UdEwQCMAAwHQYDVR0lBBYwFAYIKwYBBQUHAwEGCCsGAQUFBwMCMB0G
A1UdDgQWBBQZJkGLaCk08lLvMI9Eekrhy2nJaTAfBgNVHSMEGDAWgBRqFOtsnoBG
j9o6r9S1677+GFW+uTAdBgNVHREEFjAUggdhYmMueHl6ggkqLmFiYy54eXowDQYJ
KoZIhvcNAQEFBQADggEBAH/lRLX0x4oXI0xuB2GqFek8oWegAB+yFOjHaMdNU16H
HLfkdilcj32qMoEo8Glv6udeG49Y5BtI3pL0eiPuPDI/maXIThvLbONw5Sn6zpq+
aWyrxWICF7n+SIBYbFrqeZuHYBUaCRfYWRvNroVsiQe7qk+I+hlE+PbUMmtRQF2B
HfyXb+PBUH8d5lVeDRT9Dww6S414t5pJbXw3wtN1A+PWRPMxqx30zaXpCifjT7u0
YqSGYm/AwYpc9OTIsqQ6JS6JgKYxqIryy93Wx31glaMPYf9STyn6ud7UZeMSLtj+
gSbSRi4lOh2CThlow0qFRnJ3UiOHhHvWYQnpEDP2r6Y=
-----END CERTIFICATE-----
